
 Start         Length     Name                   Class
 0001:00000000 0001A0B0H .text                   CODE
 0002:00000000 00000C9CH .data                   DATA
 0002:00000C9C 000000C1H .bss                    BSS


Detailed map of segments

 0001:00000000 000001D6 C=CODE     S=.text    G=(none)   M=System   ACBP=A9
 0001:000001D8 000001EC C=CODE     S=.text    G=(none)   M=SysInit  ACBP=A9
 0001:000003C4 000000BE C=CODE     S=.text    G=(none)   M=SysUtils ACBP=A9
 0001:00000484 0000000E C=CODE     S=.text    G=(none)   M=SysConst ACBP=A9
 0001:00000494 000000B0 C=CODE     S=.text    G=(none)   M=Windows  ACBP=A9
 0001:00000544 0000000E C=CODE     S=.text    G=(none)   M=Types    ACBP=A9
 0001:00000554 00000296 C=CODE     S=.text    G=(none)   M=Classes  ACBP=A9
 0001:000007EC 0000000E C=CODE     S=.text    G=(none)   M=ActiveX  ACBP=A9
 0001:000007FC 00000038 C=CODE     S=.text    G=(none)   M=Messages ACBP=A9
 0001:00000834 0000000E C=CODE     S=.text    G=(none)   M=TypInfo  ACBP=A9
 0001:00000844 0000000E C=CODE     S=.text    G=(none)   M=Variants ACBP=A9
 0001:00000854 0000000E C=CODE     S=.text    G=(none)   M=VarUtils ACBP=A9
 0001:00000864 0000000E C=CODE     S=.text    G=(none)   M=RTLConsts ACBP=A9
 0001:00000874 00000038 C=CODE     S=.text    G=(none)   M=NMConst  ACBP=A9
 0001:000008AC 00000BFC C=CODE     S=.text    G=(none)   M=NMUUE    ACBP=A9
 0001:000014A8 0000002E C=CODE     S=.text    G=(none)   M=Forms    ACBP=A9
 0001:000014D8 0000000E C=CODE     S=.text    G=(none)   M=HelpIntfs ACBP=A9
 0001:000014E8 0000000E C=CODE     S=.text    G=(none)   M=Contnrs  ACBP=A9
 0001:000014F8 0000000E C=CODE     S=.text    G=(none)   M=Math     ACBP=A9
 0001:00001508 0000000E C=CODE     S=.text    G=(none)   M=MultiMon ACBP=A9
 0001:00001518 0000000E C=CODE     S=.text    G=(none)   M=ActnList ACBP=A9
 0001:00001528 0000000E C=CODE     S=.text    G=(none)   M=ImgList  ACBP=A9
 0001:00001538 00000038 C=CODE     S=.text    G=(none)   M=CommCtrl ACBP=A9
 0001:00001570 0000000E C=CODE     S=.text    G=(none)   M=Graphics ACBP=A9
 0001:00001580 0000000E C=CODE     S=.text    G=(none)   M=Consts   ACBP=A9
 0001:00001590 0000000E C=CODE     S=.text    G=(none)   M=Controls ACBP=A9
 0001:000015A0 00000038 C=CODE     S=.text    G=(none)   M=Imm      ACBP=A9
 0001:000015D8 0000000E C=CODE     S=.text    G=(none)   M=Menus    ACBP=A9
 0001:000015E8 0000000E C=CODE     S=.text    G=(none)   M=WinHelpViewer ACBP=A9
 0001:000015F8 0000000E C=CODE     S=.text    G=(none)   M=StdActns ACBP=A9
 0001:00001608 0000000E C=CODE     S=.text    G=(none)   M=Dialogs  ACBP=A9
 0001:00001618 00000038 C=CODE     S=.text    G=(none)   M=ShlObj   ACBP=A9
 0001:00001650 00000038 C=CODE     S=.text    G=(none)   M=UrlMon   ACBP=A9
 0001:00001688 00000038 C=CODE     S=.text    G=(none)   M=WinInet  ACBP=A9
 0001:000016C0 00000038 C=CODE     S=.text    G=(none)   M=RegStr   ACBP=A9
 0001:000016F8 00000038 C=CODE     S=.text    G=(none)   M=ShellAPI ACBP=A9
 0001:00001730 0000000E C=CODE     S=.text    G=(none)   M=Printers ACBP=A9
 0001:00001740 00000038 C=CODE     S=.text    G=(none)   M=WinSpool ACBP=A9
 0001:00001778 0000000E C=CODE     S=.text    G=(none)   M=StdCtrls ACBP=A9
 0001:00001788 00000038 C=CODE     S=.text    G=(none)   M=CommDlg  ACBP=A9
 0001:000017C0 00000038 C=CODE     S=.text    G=(none)   M=Dlgs     ACBP=A9
 0001:000017F8 0000000E C=CODE     S=.text    G=(none)   M=ExtCtrls ACBP=A9
 0001:00001808 0000000E C=CODE     S=.text    G=(none)   M=StrUtils ACBP=A9
 0001:00001818 0000000E C=CODE     S=.text    G=(none)   M=Clipbrd  ACBP=A9
 0001:00001828 0000000E C=CODE     S=.text    G=(none)   M=FlatSB   ACBP=A9
 0001:00001838 000000F8 C=CODE     S=.text    G=(none)   M=WinSock  ACBP=A9
 0001:00001930 000040B1 C=CODE     S=.text    G=(none)   M=Psock    ACBP=A9
 0001:000059E4 00000464 C=CODE     S=.text    G=(none)   M=NMDayTim ACBP=A9
 0001:00005E48 00000234 C=CODE     S=.text    G=(none)   M=NMEcho   ACBP=A9
 0001:0000607C 0000027C C=CODE     S=.text    G=(none)   M=NMFngr   ACBP=A9
 0001:000062F8 000062E8 C=CODE     S=.text    G=(none)   M=NMFtp    ACBP=A9
 0001:0000C5E0 0000040C C=CODE     S=.text    G=(none)   M=NMExtstr ACBP=A9
 0001:0000C9EC 000005A0 C=CODE     S=.text    G=(none)   M=NMURL    ACBP=A9
 0001:0000CF8C 000024EC C=CODE     S=.text    G=(none)   M=NMHttp   ACBP=A9
 0001:0000F478 00000550 C=CODE     S=.text    G=(none)   M=NMMSG    ACBP=A9
 0001:0000F9C8 00003378 C=CODE     S=.text    G=(none)   M=NMNNTP   ACBP=A9
 0001:00012D40 0000289C C=CODE     S=.text    G=(none)   M=NMpop3   ACBP=A9
 0001:000155DC 00000058 C=CODE     S=.text    G=(none)   M=NMS_Huge ACBP=A9
 0001:00015634 00000584 C=CODE     S=.text    G=(none)   M=NMS_Stream ACBP=A9
 0001:00015BB8 00002380 C=CODE     S=.text    G=(none)   M=NMsmtp   ACBP=A9
 0001:00017F38 00000640 C=CODE     S=.text    G=(none)   M=NMSTRM   ACBP=A9
 0001:00018578 000008E0 C=CODE     S=.text    G=(none)   M=NMTime   ACBP=A9
 0001:00018E58 00001028 C=CODE     S=.text    G=(none)   M=NMUDP    ACBP=A9
 0001:00019E80 0000022D C=CODE     S=.text    G=(none)   M=nmfast   ACBP=A9
 0002:00000000 00000028 C=DATA     S=.data    G=DGROUP   M=SysInit  ACBP=A9
 0002:00000028 000000D0 C=DATA     S=.data    G=DGROUP   M=NMUUE    ACBP=A9
 0002:000000F8 00000B78 C=DATA     S=.data    G=DGROUP   M=Psock    ACBP=A9
 0002:00000C70 00000024 C=DATA     S=.data    G=DGROUP   M=NMNNTP   ACBP=A9
 0002:00000C94 00000004 C=DATA     S=.data    G=DGROUP   M=NMS_Stream ACBP=A9
 0002:00001000 00000018 C=BSS      S=.bss     G=DGROUP   M=SysInit  ACBP=A9
 0002:00001018 00000004 C=BSS      S=.bss     G=DGROUP   M=Windows  ACBP=A9
 0002:0000101C 00000004 C=BSS      S=.bss     G=DGROUP   M=Messages ACBP=A9
 0002:00001020 00000004 C=BSS      S=.bss     G=DGROUP   M=NMConst  ACBP=A9
 0002:00001024 00000004 C=BSS      S=.bss     G=DGROUP   M=NMUUE    ACBP=A9
 0002:00001028 00000004 C=BSS      S=.bss     G=DGROUP   M=CommCtrl ACBP=A9
 0002:0000102C 00000004 C=BSS      S=.bss     G=DGROUP   M=Imm      ACBP=A9
 0002:00001030 00000004 C=BSS      S=.bss     G=DGROUP   M=ShlObj   ACBP=A9
 0002:00001034 00000004 C=BSS      S=.bss     G=DGROUP   M=UrlMon   ACBP=A9
 0002:00001038 00000004 C=BSS      S=.bss     G=DGROUP   M=WinInet  ACBP=A9
 0002:0000103C 00000004 C=BSS      S=.bss     G=DGROUP   M=RegStr   ACBP=A9
 0002:00001040 00000004 C=BSS      S=.bss     G=DGROUP   M=ShellAPI ACBP=A9
 0002:00001044 00000004 C=BSS      S=.bss     G=DGROUP   M=WinSpool ACBP=A9
 0002:00001048 00000004 C=BSS      S=.bss     G=DGROUP   M=CommDlg  ACBP=A9
 0002:0000104C 00000004 C=BSS      S=.bss     G=DGROUP   M=Dlgs     ACBP=A9
 0002:00001050 00000004 C=BSS      S=.bss     G=DGROUP   M=WinSock  ACBP=A9
 0002:00001054 00000020 C=BSS      S=.bss     G=DGROUP   M=Psock    ACBP=A9
 0002:00001074 00000004 C=BSS      S=.bss     G=DGROUP   M=NMDayTim ACBP=A9
 0002:00001078 00000004 C=BSS      S=.bss     G=DGROUP   M=NMEcho   ACBP=A9
 0002:0000107C 00000004 C=BSS      S=.bss     G=DGROUP   M=NMFngr   ACBP=A9
 0002:00001080 00000004 C=BSS      S=.bss     G=DGROUP   M=NMFtp    ACBP=A9
 0002:00001084 00000004 C=BSS      S=.bss     G=DGROUP   M=NMExtstr ACBP=A9
 0002:00001088 00000004 C=BSS      S=.bss     G=DGROUP   M=NMURL    ACBP=A9
 0002:0000108C 00000004 C=BSS      S=.bss     G=DGROUP   M=NMHttp   ACBP=A9
 0002:00001090 00000004 C=BSS      S=.bss     G=DGROUP   M=NMMSG    ACBP=A9
 0002:00001094 00000004 C=BSS      S=.bss     G=DGROUP   M=NMNNTP   ACBP=A9
 0002:00001098 0000000C C=BSS      S=.bss     G=DGROUP   M=NMpop3   ACBP=A9
 0002:000010A4 00000004 C=BSS      S=.bss     G=DGROUP   M=NMS_Huge ACBP=A9
 0002:000010A8 00000004 C=BSS      S=.bss     G=DGROUP   M=NMS_Stream ACBP=A9
 0002:000010AC 00000008 C=BSS      S=.bss     G=DGROUP   M=NMsmtp   ACBP=A9
 0002:000010B4 00000004 C=BSS      S=.bss     G=DGROUP   M=NMSTRM   ACBP=A9
 0002:000010B8 00000004 C=BSS      S=.bss     G=DGROUP   M=NMTime   ACBP=A9
 0002:000010BC 00000004 C=BSS      S=.bss     G=DGROUP   M=NMUDP    ACBP=A9


  Address         Publics by Name

 0002:00001050       .1
 0002:00001040       .1
 0002:0000101C       .1
 0002:00001020       .1
 0002:00001010       .1
 0002:00001048       .1
 0002:000010A4       .1
 0002:0000104C       .1
 0002:0000103C       .1
 0002:00001038       .1
 0002:00001034       .1
 0002:00001030       .1
 0002:0000102C       .1
 0002:00001028       .1
 0002:00001078       .2
 0002:000010A8       .2
 0002:0000107C       .2
 0002:00001024       .2
 0002:000010B8       .2
 0002:00001074       .2
 0002:00001088       .2
 0002:00001084       .2
 0002:000010BC       .3
 0002:000010AC       .3
 0002:000010B4       .3
 0002:00001044       .3
 0002:00001018       .3
 0002:00001090       .3
 0002:00001080       .31
 0002:0000108C       .4
 0002:00001098       .4
 0002:00001094       .5
 0002:00001054       .8
 0001:0001A088       @GetPackageInfoTable
 0001:00000310       @InitPkg
 0001:00000374       @PackageLoad
 0001:0001A090       @PackageLoad
 0001:00000380       @PackageUnload
 0001:0001A09C       @PackageUnload
 0001:00001838       accept
 0001:00000210       AllocTlsBuffer
 0001:00010F60       AuthFail
 0002:000000A8       base64Table
 0001:00001840       bind
 0002:00000C94       BufferSize
 0001:00013580       CheckAuth
 0001:00001848       closesocket
 0001:00001568       CommCtrl
 0001:000017B8       CommDlg
 0001:00001850       connect
 0002:00001058       CounterLock
 0001:000004BC       CreateWindowEx
 0001:000004C4       DefWindowProc
 0001:00000494       DeleteCriticalSection
 0001:000004CC       DestroyWindow
 0001:000017F0       Dlgs
 0001:0000049C       EnterCriticalSection
 0001:000002BC       ExitProcessTLS
 0001:00000294       ExitThreadTLS
 0001:00001788       Finalization
 0001:00001740       Finalization
 0001:0000F990       Finalization
 0001:000016F8       Finalization
 0001:000016C0       Finalization
 0001:00005E10       Finalization
 0001:00001688       Finalization
 0001:0000C5A8       Finalization
 0001:00001650       Finalization
 0001:00019E48       Finalization
 0001:00012CF0       Finalization
 0001:00001618       Finalization
 0001:000015A0       Finalization
 0001:00018E20       Finalization
 0001:00001538       Finalization
 0001:00001470       Finalization
 0001:000155A4       Finalization
 0001:000017C0       Finalization
 0001:000062C0       Finalization
 0001:000155FC       Finalization
 0001:00000874       Finalization
 0001:000018F8       Finalization
 0001:000007FC       Finalization
 0001:0000050C       Finalization
 0001:0000F440       Finalization
 0001:00015B80       Finalization
 0001:00006044       Finalization
 0001:0000CF54       Finalization
 0001:00018540       Finalization
 0001:000059A0       Finalization
 0001:00017F00       Finalization
 0001:0000038C       Finalization
 0001:0000C9B4       Finalization
 0001:000001D8       FreeLibrary
 0001:000004D4       GetClassInfo
 0001:000018B8       gethostbyname
 0001:000018C0       gethostname
 0001:00001858       getsockname
 0001:0000021C       GetTlsSize
 0001:000004DC       GetWindowLong
 0001:00000504       HiByte
 0002:0000100C       HInstance
 0001:000155F4       HMemCpy
 0001:00001860       htons
 0001:000155E4       HugeDec
 0001:000155DC       HugeInc
 0001:000155EC       HugeOffset
 0001:000015D0       Imm
 0001:00001868       inet_addr
 0001:00001870       inet_ntoa
 0001:000004A4       InitializeCriticalSection
 0001:000002E0       InitializeModule
 0001:00000268       InitProcessTLS
 0001:00000224       InitThreadTLS
 0001:00005304       InstantiateServethread.Create
 0001:00005464       InstantiateServethread.Destroy
 0001:00005524       InstantiateServethread.Execute
 0001:00011488       IsInCache
 0001:000004E4       KillTimer
 0001:00014AF4       LastPos
 0001:000004AC       LeaveCriticalSection
 0001:00001878       listen
 0001:000001E0       LocalAlloc
 0001:000001E8       LocalFree
 0002:000010B0       mailcount
 0001:0000082C       Messages
 0002:00000068       MimeTable
 0002:00000000       Module
 0002:00001000       ModuleIsLib
 0002:00001001       ModuleIsPackage
 0001:000008A4       NMConst
 0001:00005E40       NMDayTim
 0001:00006074       NMEcho
 0001:0000C9E4       NMExtstr
 0001:0001A0A8       nmfast
 0001:000062F0       NMFngr
 0001:0000C5D8       NMFtp
 0001:0000F470       NMHttp
 0001:0000F9C0       NMMSG
 0001:00012D38       NMNNTP
 0001:000155D4       NMpop3
 0001:00017F30       NMsmtp
 0001:00018570       NMSTRM
 0001:0001562C       NMS_Huge
 0001:00015BB0       NMS_Stream
 0001:00018E50       NMTime
 0001:00019E78       NMUDP
 0001:0000CF84       NMURL
 0001:000014A0       NMUUE
 0001:00005658       NthPos
 0001:00005560       NthWord
 0001:00001880       ntohs
 0001:000059D0       Psock
 0001:00005804       PsockAllocateHWnd
 0002:00000C20       PsockWindowClass
 0001:00005784       PsockWindowProc
 0002:0000109C       Readindex
 0001:00001888       recv
 0001:00001890       recvfrom
 0001:000004EC       RegisterClass
 0001:000016F0       RegStr
 0001:00001898       send
 0001:000018A0       sendto
 0001:000018A8       setsockopt
 0001:000004F4       SetTimer
 0001:000004FC       SetWindowLong
 0001:00001728       ShellAPI
 0001:00001648       ShlObj
 0001:00006FC0       skipblanks
 0001:000004B4       Sleep
 0001:000018B0       socket
 0002:00000C70       Stable
 0001:000056E4       StreamLn
 0001:000003BC       SysInit
 0001:0000C6FC       TExStringList.GetValue
 0001:0000C7AC       TExStringList.IndexOfName
 0001:0000C910       TExStringList.SetValue
 0002:000010A0       TFileIndex
 0001:0000797C       TFTPAS400List.ParseLine
 0001:00007104       TFTPDirectoryList.Clear
 0001:00006F04       TFTPDirectoryList.Create
 0001:00006F78       TFTPDirectoryList.Destroy
 0001:00006FF0       TFTPDirectoryList.ParseLine
 0001:0000738C       TFTPDOSList.ParseLine
 0001:0000784C       TFTPMACOSList.ParseLine
 0001:000075EC       TFTPMVSList.ParseLine
 0001:0000725C       TFTPNETWAREList.ParseLine
 0001:00007A3C       TFTPOTHERList.ParseLine
 0001:0000712C       TFTPUnixList.ParseLine
 0001:0000771C       TFTPVMList.ParseLine
 0001:000074BC       TFTPVMSList.ParseLine
 0001:000001F0       TlsAlloc
 0002:00001014       tlsBuffer
 0001:000001F8       TlsFree
 0001:00000200       TlsGetValue
 0002:00001004       TlsIndex
 0002:BF454000       TlsLast
 0002:00000018       TlsProc
 0001:00000208       TlsSetValue
 0001:000154E8       TMailMessage.Create
 0001:00015560       TMailMessage.Destroy
 0001:0000590C       TmrAllocateHWnd
 0002:00000C48       TmrWindowClass
 0001:00005898       TmrWindowProc
 0001:00005AA8       TNMDayTime.Create
 0001:00005AF4       TNMDayTime.GetTimeStr
 0001:00005F44       TNMEcho.Create
 0001:00005FA8       TNMEcho.Echo
 0001:00006190       TNMFinger.Create
 0001:000061D0       TNMFinger.GetFingerString
 0001:0000BEE4       TNMFTP.Abort
 0001:0000C490       TNMFTP.Allocate
 0001:000084A8       TNMFTP.ChangeDir
 0001:0000C508       TNMFTP.CheckRead
 0001:00007D4C       TNMFTP.Connect
 0001:00007B6C       TNMFTP.Create
 0001:00008764       TNMFTP.Delete
 0001:00007BE4       TNMFTP.Destroy
 0001:00007C2C       TNMFTP.Disconnect
 0001:00008210       TNMFTP.DoCommand
 0001:0000A688       TNMFTP.Download
 0001:0000AE44       TNMFTP.DownloadRestore
 0001:0000C50C       TNMFTP.Flush
 0001:0000BD44       TNMFTP.GetBytesRcvd
 0001:0000BD54       TNMFTP.GetBytesSent
 0001:0000BD64       TNMFTP.GetBytesTotal
 0001:0000BCB0       TNMFTP.GetCurrentDir
 0001:00008DAC       TNMFTP.List
 0001:000087DC       TNMFTP.MakeDirectory
 0001:0000BCE4       TNMFTP.Mode
 0001:0000BFC4       TNMFTP.Nlist
 0001:0000BF58       TNMFTP.ReadExtraLines
 0001:0000C474       TNMFTP.Reinitialize
 0001:00008854       TNMFTP.RemoveDir
 0001:00008520       TNMFTP.Rename
 0001:0000BEF8       TNMFTP.Transaction
 0001:00009854       TNMFTP.Upload
 0001:0000B63C       TNMFTP.UploadAppend
 0001:00009F2C       TNMFTP.UploadRestore
 0001:000088CC       TNMFTP.UploadUnique
 0001:00005204       TNMGeneralServer.Abort
 0001:000051C8       TNMGeneralServer.Connect
 0001:000050B4       TNMGeneralServer.Create
 0001:0000512C       TNMGeneralServer.Destroy
 0001:000051CC       TNMGeneralServer.Loaded
 0001:00005300       TNMGeneralServer.Serve
 0001:00005278       TNMGeneralServer.ServerAccept
 0001:0000DD74       TNMHTTP.Abort
 0001:0000E324       TNMHTTP.AssembleHTTPHeader
 0001:0000D9CC       TNMHTTP.Copy
 0001:0000D5C4       TNMHTTP.Create
 0001:0000DC14       TNMHTTP.Delete
 0001:0000D67C       TNMHTTP.Destroy
 0001:0000D6B8       TNMHTTP.Get
 0001:0000D8EC       TNMHTTP.Head
 0001:0000DD84       TNMHTTP.HTTPConnect
 0001:0000DACC       TNMHTTP.Link
 0001:0000DA4C       TNMHTTP.Move
 0001:0000D718       TNMHTTP.Options
 0001:0000E01C       TNMHTTP.ParseURL
 0001:0000D94C       TNMHTTP.Patch
 0001:0000D778       TNMHTTP.Post
 0001:0000D86C       TNMHTTP.Put
 0001:0000F0BC       TNMHTTP.RemoveHeader
 0001:0000F02C       TNMHTTP.SendHTTP
 0001:0000DC74       TNMHTTP.Trace
 0001:0000DB70       TNMHTTP.UnLink
 0001:0000DCF4       TNMHTTP.Wrapped
 0001:0000F830       TNMMsg.Abort
 0001:0000F6B4       TNMMsg.Create
 0001:0000F6F4       TNMMsg.PostIt
 0001:0000F84C       TNMMSGServ.Create
 0001:0000F88C       TNMMSGServ.Serve
 0001:000108A0       TNMNNTP.Abort
 0001:000108D8       TNMNNTP.AbortResume
 0001:00010750       TNMNNTP.Connect
 0001:00010588       TNMNNTP.Create
 0001:00012620       TNMNNTP.Decode
 0001:000106BC       TNMNNTP.Destroy
 0001:000107F4       TNMNNTP.Disconnect
 0001:00011DC0       TNMNNTP.ExtractAttachments
 0001:00011F18       TNMNNTP.ExtractEmbedded
 0001:00012284       TNMNNTP.ExtractMultipart
 0001:00010F08       TNMNNTP.GetArticle
 0001:00011218       TNMNNTP.GetArticleBody
 0001:00010F50       TNMNNTP.GetArticleHeader
 0001:00010F18       TNMNNTP.GetArticleList
 0001:00010F40       TNMNNTP.GetGroupList
 0001:00011228       TNMNNTP.InternalConnect
 0001:00010B98       TNMNNTP.PostArticle
 0001:00011DBC       TNMNNTP.Readfromcache
 0001:00011CA4       TNMNNTP.ReadTillBlankLine
 0001:00011AE8       TNMNNTP.ReadTillDot
 0001:0001148C       TNMNNTP.RetreiveArticle
 0001:000117C4       TNMNNTP.RetreiveList
 0001:000108E0       TNMNNTP.SetAttachmentPath
 0001:000109E8       TNMNNTP.SetGroup
 0001:00010964       TNMNNTP.SetNewsDir
 0001:00012790       TNMNNTP.SetPostAttachments
 0001:000127A0       TNMNNTP.SetPostBody
 0001:000127B0       TNMNNTP.SetPostHeader
 0001:00010FC8       TNMNNTP.Transaction
 0001:000154C0       TNMPOP3.Abort
 0001:000154E4       TNMPOP3.AbortResume
 0001:000136A4       TNMPOP3.Connect
 0001:0001348C       TNMPOP3.Create
 0001:00015204       TNMPOP3.DeleteMailMessage
 0001:00013538       TNMPOP3.Destroy
 0001:000139B0       TNMPOP3.Disconnect
 0001:000142E0       TNMPOP3.Extract
 0001:00013E40       TNMPOP3.GetMailMessage
 0001:00013A90       TNMPOP3.GetSummary
 0001:00014484       TNMPOP3.List
 0001:00014BA0       TNMPOP3.ReadBody
 0001:000146E4       TNMPOP3.ReadHeader
 0001:000145EC       TNMPOP3.ReadMailParts
 0001:0001440C       TNMPOP3.Reset
 0001:00013410       TNMPOP3.SetAttachFilePath
 0001:00015370       TNMPOP3.UniqueID
 0001:00017B88       TNMSMTP.Abort
 0001:00017B90       TNMSMTP.AbortResume
 0001:00016E90       TNMSMTP.AssembleMail
 0001:00017E70       TNMSMTP.ClearParameters
 0001:000164AC       TNMSMTP.Connect
 0001:0001630C       TNMSMTP.Create
 0001:00016454       TNMSMTP.Destroy
 0001:000166E0       TNMSMTP.Disconnect
 0001:00017BA4       TNMSMTP.ExpandList
 0001:00017CC4       TNMSMTP.ExtractAddress
 0001:00017A90       TNMSMTP.ReadExtraLines
 0001:0001768C       TNMSMTP.SendAttachments
 0001:00016798       TNMSMTP.SendMail
 0001:00017D90       TNMSMTP.SetFinalHeader
 0001:00017AF0       TNMSMTP.Verify
 0001:0001835C       TNMStrm.Abort
 0001:000181C8       TNMStrm.Create
 0001:00018208       TNMStrm.PostIt
 0001:00018378       TNMStrmServ.Create
 0001:000183B8       TNMStrmServ.Serve
 0001:00018674       TNMTime.Create
 0001:00018A90       TNMTime.GetTimeInt
 0001:000186C0       TNMTime.GetTimeStr
 0001:00019288       TNMUDP.Create
 0001:00019408       TNMUDP.Destroy
 0001:00019A8C       TNMUDP.ErrorManager
 0001:0001952C       TNMUDP.Loaded
 0001:00019D10       TNMUDP.ProcessIncomingdata
 0001:00019E24       TNMUDP.ReadBuffer
 0001:00019E04       TNMUDP.ReadStream
 0001:000195B8       TNMUDP.ResolveRemoteHost
 0001:000198EC       TNMUDP.SendBuffer
 0001:0001972C       TNMUDP.SendStream
 0001:00019448       TNMUDP.SetLocalPort
 0001:00019B88       TNMUDP.SocketErrorStr
 0001:00019C50       TNMUDP.StatusMessage
 0001:00019CD0       TNMUDP.WndProc
 0001:0000CB34       TNMURL.Create
 0001:0000CB74       TNMURL.Destroy
 0001:0000CF3C       TNMURL.GetDecodeString
 0001:0000CF24       TNMURL.GetEncodeString
 0001:0000CB9C       TNMURL.URLDecode
 0001:0000CD74       TNMURL.URLEncode
 0001:00000ED0       TNMUUProcessor.Base64Decode
 0001:00000A4C       TNMUUProcessor.Create
 0001:00000E8C       TNMUUProcessor.Decode
 0001:00000AC8       TNMUUProcessor.Encode
 0001:000013F0       TNMUUProcessor.ReadLnFromStream
 0001:00000A88       TNMUUProcessor.SetEncodeTable
 0001:000011A8       TNMUUProcessor.StdDecode
 0001:00000AC0       TNMUUProcessor.UuDEC
 0001:00017DA0       TPostMessage.Create
 0001:00017E20       TPostMessage.Destroy
 0001:00017EF0       TPostMessage.SetLinesAttachments
 0001:00017ED0       TPostMessage.SetLinesBCC
 0001:00017EE0       TPostMessage.SetLinesBody
 0001:00017EC0       TPostMessage.SetLinesCC
 0001:00017EB0       TPostMessage.SetLinesTo
 0001:00012C88       TPostRecordType.GetArticleId
 0001:00012BF4       TPostRecordType.GetNewsGroups
 0001:00012ACC       TPostRecordType.GetPrAppName
 0001:00012824       TPostRecordType.GetPrByteCount
 0001:00012A30       TPostRecordType.GetPrDistribution
 0001:0001288C       TPostRecordType.GetPrFromAddress
 0001:000127C0       TPostRecordType.GetPrLineCount
 0001:00012918       TPostRecordType.GetPrReplyTo
 0001:000129A4       TPostRecordType.GetPrSubject
 0001:00012B68       TPostRecordType.GetPrTimeDate
 0001:00012C20       TPostRecordType.SetNewsGroups
 0001:00012AFC       TPostRecordType.SetPrAppName
 0001:00012A60       TPostRecordType.SetPrDistribution
 0001:000128B4       TPostRecordType.SetPrFromAddress
 0001:00012940       TPostRecordType.SetPrReplyTo
 0001:000129CC       TPostRecordType.SetPrSubject
 0001:00012B90       TPostRecordType.SetPrTimeDate
 0001:00004CA8       TPowersock.Abort
 0001:00003D90       TPowersock.Accept
 0001:000033C8       TPowersock.AppendFile
 0001:00002758       TPowersock.Cancel
 0001:0000359C       TPowersock.CaptureFile
 0001:000037B0       TPowersock.CaptureStream
 0001:000039B4       TPowersock.CaptureString
 0001:00002690       TPowersock.CertifyConnect
 0001:00004A48       TPowersock.ClearInput
 0001:00004CD4       TPowersock.Close
 0001:00002270       TPowersock.Connect
 0001:0000209C       TPowersock.Create
 0001:000049FC       TPowersock.DataAvailable
 0001:00002184       TPowersock.Destroy
 0001:0000265C       TPowersock.Disconnect
 0001:000047B0       TPowersock.ErrorManager
 0001:00003BD0       TPowersock.FilterHeader
 0001:0000472C       TPowersock.GetLastErrorNo
 0001:00004E3C       TPowersock.GetLocalAddress
 0001:00004D54       TPowersock.GetLocalIP
 0001:00004E98       TPowersock.GetPortString
 0001:00004D0C       TPowersock.GetRemoteIP
 0001:00004114       TPowersock.InitWinsock
 0001:00003CAC       TPowersock.Listen
 0001:00002A08       TPowersock.Read
 0001:00002BE8       TPowersock.ReadLn
 0001:00004634       TPowersock.RequestCloseSocket
 0001:00004AAC       TPowersock.ResolveRemoteHost
 0001:00002788       TPowersock.SendBuffer
 0001:00002FD4       TPowersock.SendFile
 0001:000031DC       TPowersock.SendStream
 0001:0000476C       TPowersock.SetLastErrorNo
 0001:0000487C       TPowersock.SetWSAError
 0001:00003F18       TPowersock.SocketErrorStr
 0001:00004954       TPowersock.StatusMessage
 0001:00004040       TPowersock.TimerFired
 0001:000040E0       TPowersock.TimerOff
 0001:00004088       TPowersock.TimerOn
 0001:00002E68       TPowersock.Transaction
 0001:000044D4       TPowersock.Wndproc
 0001:00002908       TPowersock.Write
 0001:00002984       TPowersock.Writeln
 0001:0001339C       TSummary.Create
 0001:000133E0       TSummary.Destroy
 0001:00015B58       TS_BufferStream.AfterFillBuffer
 0001:00015B6C       TS_BufferStream.AfterFlushBuffer
 0001:00015738       TS_BufferStream.Create
 0001:0001579C       TS_BufferStream.Destroy
 0001:000157DC       TS_BufferStream.FillBuffer
 0001:0001581C       TS_BufferStream.FlushBuffer
 0001:00015AB4       TS_BufferStream.GetBufPosition
 0001:00015B24       TS_BufferStream.IsEof
 0001:00015AE0       TS_BufferStream.PutBack
 0001:00015868       TS_BufferStream.Read
 0001:000159B4       TS_BufferStream.Seek
 0001:00015900       TS_BufferStream.Write
 0001:00004F0C       TThreadTimer.Create
 0001:00004F58       TThreadTimer.Destroy
 0001:00005068       TThreadTimer.SetEnabled
 0001:00005078       TThreadTimer.SetInterval
 0001:00005088       TThreadTimer.SetOnTimer
 0001:000050A0       TThreadTimer.Timer
 0001:00005004       TThreadTimer.UpdateTimer
 0001:00004F94       TThreadTimer.Wndproc
 0001:000002EC       UninitializeModule
 0001:00001680       UrlMon
 0002:00000028       UUTABLE
 0002:00001070       WCount
 0001:0000053C       Windows
 0001:000016B8       WinInet
 0001:00001928       WinSock
 0002:000000F8       WinsockMessage
 0001:00001770       WinSpool
 0001:000018D0       WSAAsyncGetHostByName
 0001:000018C8       WSAAsyncSelect
 0001:000018F0       WSACleanup
 0001:000018D8       WSAGetLastError
 0001:000018E0       WSASetLastError
 0001:000018E8       WSAStartup


  Address         Publics by Value

 0002:BF454000       TlsLast
 0001:000001D8       FreeLibrary
 0001:000001E0       LocalAlloc
 0001:000001E8       LocalFree
 0001:000001F0       TlsAlloc
 0001:000001F8       TlsFree
 0001:00000200       TlsGetValue
 0001:00000208       TlsSetValue
 0001:00000210       AllocTlsBuffer
 0001:0000021C       GetTlsSize
 0001:00000224       InitThreadTLS
 0001:00000268       InitProcessTLS
 0001:00000294       ExitThreadTLS
 0001:000002BC       ExitProcessTLS
 0001:000002E0       InitializeModule
 0001:000002EC       UninitializeModule
 0001:00000310       @InitPkg
 0001:00000374       @PackageLoad
 0001:00000380       @PackageUnload
 0001:0000038C       Finalization
 0001:000003BC       SysInit
 0001:00000494       DeleteCriticalSection
 0001:0000049C       EnterCriticalSection
 0001:000004A4       InitializeCriticalSection
 0001:000004AC       LeaveCriticalSection
 0001:000004B4       Sleep
 0001:000004BC       CreateWindowEx
 0001:000004C4       DefWindowProc
 0001:000004CC       DestroyWindow
 0001:000004D4       GetClassInfo
 0001:000004DC       GetWindowLong
 0001:000004E4       KillTimer
 0001:000004EC       RegisterClass
 0001:000004F4       SetTimer
 0001:000004FC       SetWindowLong
 0001:00000504       HiByte
 0001:0000050C       Finalization
 0001:0000053C       Windows
 0001:000007FC       Finalization
 0001:0000082C       Messages
 0001:00000874       Finalization
 0001:000008A4       NMConst
 0001:00000A4C       TNMUUProcessor.Create
 0001:00000A88       TNMUUProcessor.SetEncodeTable
 0001:00000AC0       TNMUUProcessor.UuDEC
 0001:00000AC8       TNMUUProcessor.Encode
 0001:00000E8C       TNMUUProcessor.Decode
 0001:00000ED0       TNMUUProcessor.Base64Decode
 0001:000011A8       TNMUUProcessor.StdDecode
 0001:000013F0       TNMUUProcessor.ReadLnFromStream
 0001:00001470       Finalization
 0001:000014A0       NMUUE
 0001:00001538       Finalization
 0001:00001568       CommCtrl
 0001:000015A0       Finalization
 0001:000015D0       Imm
 0001:00001618       Finalization
 0001:00001648       ShlObj
 0001:00001650       Finalization
 0001:00001680       UrlMon
 0001:00001688       Finalization
 0001:000016B8       WinInet
 0001:000016C0       Finalization
 0001:000016F0       RegStr
 0001:000016F8       Finalization
 0001:00001728       ShellAPI
 0001:00001740       Finalization
 0001:00001770       WinSpool
 0001:00001788       Finalization
 0001:000017B8       CommDlg
 0001:000017C0       Finalization
 0001:000017F0       Dlgs
 0001:00001838       accept
 0001:00001840       bind
 0001:00001848       closesocket
 0001:00001850       connect
 0001:00001858       getsockname
 0001:00001860       htons
 0001:00001868       inet_addr
 0001:00001870       inet_ntoa
 0001:00001878       listen
 0001:00001880       ntohs
 0001:00001888       recv
 0001:00001890       recvfrom
 0001:00001898       send
 0001:000018A0       sendto
 0001:000018A8       setsockopt
 0001:000018B0       socket
 0001:000018B8       gethostbyname
 0001:000018C0       gethostname
 0001:000018C8       WSAAsyncSelect
 0001:000018D0       WSAAsyncGetHostByName
 0001:000018D8       WSAGetLastError
 0001:000018E0       WSASetLastError
 0001:000018E8       WSAStartup
 0001:000018F0       WSACleanup
 0001:000018F8       Finalization
 0001:00001928       WinSock
 0001:0000209C       TPowersock.Create
 0001:00002184       TPowersock.Destroy
 0001:00002270       TPowersock.Connect
 0001:0000265C       TPowersock.Disconnect
 0001:00002690       TPowersock.CertifyConnect
 0001:00002758       TPowersock.Cancel
 0001:00002788       TPowersock.SendBuffer
 0001:00002908       TPowersock.Write
 0001:00002984       TPowersock.Writeln
 0001:00002A08       TPowersock.Read
 0001:00002BE8       TPowersock.ReadLn
 0001:00002E68       TPowersock.Transaction
 0001:00002FD4       TPowersock.SendFile
 0001:000031DC       TPowersock.SendStream
 0001:000033C8       TPowersock.AppendFile
 0001:0000359C       TPowersock.CaptureFile
 0001:000037B0       TPowersock.CaptureStream
 0001:000039B4       TPowersock.CaptureString
 0001:00003BD0       TPowersock.FilterHeader
 0001:00003CAC       TPowersock.Listen
 0001:00003D90       TPowersock.Accept
 0001:00003F18       TPowersock.SocketErrorStr
 0001:00004040       TPowersock.TimerFired
 0001:00004088       TPowersock.TimerOn
 0001:000040E0       TPowersock.TimerOff
 0001:00004114       TPowersock.InitWinsock
 0001:000044D4       TPowersock.Wndproc
 0001:00004634       TPowersock.RequestCloseSocket
 0001:0000472C       TPowersock.GetLastErrorNo
 0001:0000476C       TPowersock.SetLastErrorNo
 0001:000047B0       TPowersock.ErrorManager
 0001:0000487C       TPowersock.SetWSAError
 0001:00004954       TPowersock.StatusMessage
 0001:000049FC       TPowersock.DataAvailable
 0001:00004A48       TPowersock.ClearInput
 0001:00004AAC       TPowersock.ResolveRemoteHost
 0001:00004CA8       TPowersock.Abort
 0001:00004CD4       TPowersock.Close
 0001:00004D0C       TPowersock.GetRemoteIP
 0001:00004D54       TPowersock.GetLocalIP
 0001:00004E3C       TPowersock.GetLocalAddress
 0001:00004E98       TPowersock.GetPortString
 0001:00004F0C       TThreadTimer.Create
 0001:00004F58       TThreadTimer.Destroy
 0001:00004F94       TThreadTimer.Wndproc
 0001:00005004       TThreadTimer.UpdateTimer
 0001:00005068       TThreadTimer.SetEnabled
 0001:00005078       TThreadTimer.SetInterval
 0001:00005088       TThreadTimer.SetOnTimer
 0001:000050A0       TThreadTimer.Timer
 0001:000050B4       TNMGeneralServer.Create
 0001:0000512C       TNMGeneralServer.Destroy
 0001:000051C8       TNMGeneralServer.Connect
 0001:000051CC       TNMGeneralServer.Loaded
 0001:00005204       TNMGeneralServer.Abort
 0001:00005278       TNMGeneralServer.ServerAccept
 0001:00005300       TNMGeneralServer.Serve
 0001:00005304       InstantiateServethread.Create
 0001:00005464       InstantiateServethread.Destroy
 0001:00005524       InstantiateServethread.Execute
 0001:00005560       NthWord
 0001:00005658       NthPos
 0001:000056E4       StreamLn
 0001:00005784       PsockWindowProc
 0001:00005804       PsockAllocateHWnd
 0001:00005898       TmrWindowProc
 0001:0000590C       TmrAllocateHWnd
 0001:000059A0       Finalization
 0001:000059D0       Psock
 0001:00005AA8       TNMDayTime.Create
 0001:00005AF4       TNMDayTime.GetTimeStr
 0001:00005E10       Finalization
 0001:00005E40       NMDayTim
 0001:00005F44       TNMEcho.Create
 0001:00005FA8       TNMEcho.Echo
 0001:00006044       Finalization
 0001:00006074       NMEcho
 0001:00006190       TNMFinger.Create
 0001:000061D0       TNMFinger.GetFingerString
 0001:000062C0       Finalization
 0001:000062F0       NMFngr
 0001:00006F04       TFTPDirectoryList.Create
 0001:00006F78       TFTPDirectoryList.Destroy
 0001:00006FC0       skipblanks
 0001:00006FF0       TFTPDirectoryList.ParseLine
 0001:00007104       TFTPDirectoryList.Clear
 0001:0000712C       TFTPUnixList.ParseLine
 0001:0000725C       TFTPNETWAREList.ParseLine
 0001:0000738C       TFTPDOSList.ParseLine
 0001:000074BC       TFTPVMSList.ParseLine
 0001:000075EC       TFTPMVSList.ParseLine
 0001:0000771C       TFTPVMList.ParseLine
 0001:0000784C       TFTPMACOSList.ParseLine
 0001:0000797C       TFTPAS400List.ParseLine
 0001:00007A3C       TFTPOTHERList.ParseLine
 0001:00007B6C       TNMFTP.Create
 0001:00007BE4       TNMFTP.Destroy
 0001:00007C2C       TNMFTP.Disconnect
 0001:00007D4C       TNMFTP.Connect
 0001:00008210       TNMFTP.DoCommand
 0001:000084A8       TNMFTP.ChangeDir
 0001:00008520       TNMFTP.Rename
 0001:00008764       TNMFTP.Delete
 0001:000087DC       TNMFTP.MakeDirectory
 0001:00008854       TNMFTP.RemoveDir
 0001:000088CC       TNMFTP.UploadUnique
 0001:00008DAC       TNMFTP.List
 0001:00009854       TNMFTP.Upload
 0001:00009F2C       TNMFTP.UploadRestore
 0001:0000A688       TNMFTP.Download
 0001:0000AE44       TNMFTP.DownloadRestore
 0001:0000B63C       TNMFTP.UploadAppend
 0001:0000BCB0       TNMFTP.GetCurrentDir
 0001:0000BCE4       TNMFTP.Mode
 0001:0000BD44       TNMFTP.GetBytesRcvd
 0001:0000BD54       TNMFTP.GetBytesSent
 0001:0000BD64       TNMFTP.GetBytesTotal
 0001:0000BEE4       TNMFTP.Abort
 0001:0000BEF8       TNMFTP.Transaction
 0001:0000BF58       TNMFTP.ReadExtraLines
 0001:0000BFC4       TNMFTP.Nlist
 0001:0000C474       TNMFTP.Reinitialize
 0001:0000C490       TNMFTP.Allocate
 0001:0000C508       TNMFTP.CheckRead
 0001:0000C50C       TNMFTP.Flush
 0001:0000C5A8       Finalization
 0001:0000C5D8       NMFtp
 0001:0000C6FC       TExStringList.GetValue
 0001:0000C7AC       TExStringList.IndexOfName
 0001:0000C910       TExStringList.SetValue
 0001:0000C9B4       Finalization
 0001:0000C9E4       NMExtstr
 0001:0000CB34       TNMURL.Create
 0001:0000CB74       TNMURL.Destroy
 0001:0000CB9C       TNMURL.URLDecode
 0001:0000CD74       TNMURL.URLEncode
 0001:0000CF24       TNMURL.GetEncodeString
 0001:0000CF3C       TNMURL.GetDecodeString
 0001:0000CF54       Finalization
 0001:0000CF84       NMURL
 0001:0000D5C4       TNMHTTP.Create
 0001:0000D67C       TNMHTTP.Destroy
 0001:0000D6B8       TNMHTTP.Get
 0001:0000D718       TNMHTTP.Options
 0001:0000D778       TNMHTTP.Post
 0001:0000D86C       TNMHTTP.Put
 0001:0000D8EC       TNMHTTP.Head
 0001:0000D94C       TNMHTTP.Patch
 0001:0000D9CC       TNMHTTP.Copy
 0001:0000DA4C       TNMHTTP.Move
 0001:0000DACC       TNMHTTP.Link
 0001:0000DB70       TNMHTTP.UnLink
 0001:0000DC14       TNMHTTP.Delete
 0001:0000DC74       TNMHTTP.Trace
 0001:0000DCF4       TNMHTTP.Wrapped
 0001:0000DD74       TNMHTTP.Abort
 0001:0000DD84       TNMHTTP.HTTPConnect
 0001:0000E01C       TNMHTTP.ParseURL
 0001:0000E324       TNMHTTP.AssembleHTTPHeader
 0001:0000F02C       TNMHTTP.SendHTTP
 0001:0000F0BC       TNMHTTP.RemoveHeader
 0001:0000F440       Finalization
 0001:0000F470       NMHttp
 0001:0000F6B4       TNMMsg.Create
 0001:0000F6F4       TNMMsg.PostIt
 0001:0000F830       TNMMsg.Abort
 0001:0000F84C       TNMMSGServ.Create
 0001:0000F88C       TNMMSGServ.Serve
 0001:0000F990       Finalization
 0001:0000F9C0       NMMSG
 0001:00010588       TNMNNTP.Create
 0001:000106BC       TNMNNTP.Destroy
 0001:00010750       TNMNNTP.Connect
 0001:000107F4       TNMNNTP.Disconnect
 0001:000108A0       TNMNNTP.Abort
 0001:000108D8       TNMNNTP.AbortResume
 0001:000108E0       TNMNNTP.SetAttachmentPath
 0001:00010964       TNMNNTP.SetNewsDir
 0001:000109E8       TNMNNTP.SetGroup
 0001:00010B98       TNMNNTP.PostArticle
 0001:00010F08       TNMNNTP.GetArticle
 0001:00010F18       TNMNNTP.GetArticleList
 0001:00010F40       TNMNNTP.GetGroupList
 0001:00010F50       TNMNNTP.GetArticleHeader
 0001:00010F60       AuthFail
 0001:00010FC8       TNMNNTP.Transaction
 0001:00011218       TNMNNTP.GetArticleBody
 0001:00011228       TNMNNTP.InternalConnect
 0001:00011488       IsInCache
 0001:0001148C       TNMNNTP.RetreiveArticle
 0001:000117C4       TNMNNTP.RetreiveList
 0001:00011AE8       TNMNNTP.ReadTillDot
 0001:00011CA4       TNMNNTP.ReadTillBlankLine
 0001:00011DBC       TNMNNTP.Readfromcache
 0001:00011DC0       TNMNNTP.ExtractAttachments
 0001:00011F18       TNMNNTP.ExtractEmbedded
 0001:00012284       TNMNNTP.ExtractMultipart
 0001:00012620       TNMNNTP.Decode
 0001:00012790       TNMNNTP.SetPostAttachments
 0001:000127A0       TNMNNTP.SetPostBody
 0001:000127B0       TNMNNTP.SetPostHeader
 0001:000127C0       TPostRecordType.GetPrLineCount
 0001:00012824       TPostRecordType.GetPrByteCount
 0001:0001288C       TPostRecordType.GetPrFromAddress
 0001:000128B4       TPostRecordType.SetPrFromAddress
 0001:00012918       TPostRecordType.GetPrReplyTo
 0001:00012940       TPostRecordType.SetPrReplyTo
 0001:000129A4       TPostRecordType.GetPrSubject
 0001:000129CC       TPostRecordType.SetPrSubject
 0001:00012A30       TPostRecordType.GetPrDistribution
 0001:00012A60       TPostRecordType.SetPrDistribution
 0001:00012ACC       TPostRecordType.GetPrAppName
 0001:00012AFC       TPostRecordType.SetPrAppName
 0001:00012B68       TPostRecordType.GetPrTimeDate
 0001:00012B90       TPostRecordType.SetPrTimeDate
 0001:00012BF4       TPostRecordType.GetNewsGroups
 0001:00012C20       TPostRecordType.SetNewsGroups
 0001:00012C88       TPostRecordType.GetArticleId
 0001:00012CF0       Finalization
 0001:00012D38       NMNNTP
 0001:0001339C       TSummary.Create
 0001:000133E0       TSummary.Destroy
 0001:00013410       TNMPOP3.SetAttachFilePath
 0001:0001348C       TNMPOP3.Create
 0001:00013538       TNMPOP3.Destroy
 0001:00013580       CheckAuth
 0001:000136A4       TNMPOP3.Connect
 0001:000139B0       TNMPOP3.Disconnect
 0001:00013A90       TNMPOP3.GetSummary
 0001:00013E40       TNMPOP3.GetMailMessage
 0001:000142E0       TNMPOP3.Extract
 0001:0001440C       TNMPOP3.Reset
 0001:00014484       TNMPOP3.List
 0001:000145EC       TNMPOP3.ReadMailParts
 0001:000146E4       TNMPOP3.ReadHeader
 0001:00014AF4       LastPos
 0001:00014BA0       TNMPOP3.ReadBody
 0001:00015204       TNMPOP3.DeleteMailMessage
 0001:00015370       TNMPOP3.UniqueID
 0001:000154C0       TNMPOP3.Abort
 0001:000154E4       TNMPOP3.AbortResume
 0001:000154E8       TMailMessage.Create
 0001:00015560       TMailMessage.Destroy
 0001:000155A4       Finalization
 0001:000155D4       NMpop3
 0001:000155DC       HugeInc
 0001:000155E4       HugeDec
 0001:000155EC       HugeOffset
 0001:000155F4       HMemCpy
 0001:000155FC       Finalization
 0001:0001562C       NMS_Huge
 0001:00015738       TS_BufferStream.Create
 0001:0001579C       TS_BufferStream.Destroy
 0001:000157DC       TS_BufferStream.FillBuffer
 0001:0001581C       TS_BufferStream.FlushBuffer
 0001:00015868       TS_BufferStream.Read
 0001:00015900       TS_BufferStream.Write
 0001:000159B4       TS_BufferStream.Seek
 0001:00015AB4       TS_BufferStream.GetBufPosition
 0001:00015AE0       TS_BufferStream.PutBack
 0001:00015B24       TS_BufferStream.IsEof
 0001:00015B58       TS_BufferStream.AfterFillBuffer
 0001:00015B6C       TS_BufferStream.AfterFlushBuffer
 0001:00015B80       Finalization
 0001:00015BB0       NMS_Stream
 0001:0001630C       TNMSMTP.Create
 0001:00016454       TNMSMTP.Destroy
 0001:000164AC       TNMSMTP.Connect
 0001:000166E0       TNMSMTP.Disconnect
 0001:00016798       TNMSMTP.SendMail
 0001:00016E90       TNMSMTP.AssembleMail
 0001:0001768C       TNMSMTP.SendAttachments
 0001:00017A90       TNMSMTP.ReadExtraLines
 0001:00017AF0       TNMSMTP.Verify
 0001:00017B88       TNMSMTP.Abort
 0001:00017B90       TNMSMTP.AbortResume
 0001:00017BA4       TNMSMTP.ExpandList
 0001:00017CC4       TNMSMTP.ExtractAddress
 0001:00017D90       TNMSMTP.SetFinalHeader
 0001:00017DA0       TPostMessage.Create
 0001:00017E20       TPostMessage.Destroy
 0001:00017E70       TNMSMTP.ClearParameters
 0001:00017EB0       TPostMessage.SetLinesTo
 0001:00017EC0       TPostMessage.SetLinesCC
 0001:00017ED0       TPostMessage.SetLinesBCC
 0001:00017EE0       TPostMessage.SetLinesBody
 0001:00017EF0       TPostMessage.SetLinesAttachments
 0001:00017F00       Finalization
 0001:00017F30       NMsmtp
 0001:000181C8       TNMStrm.Create
 0001:00018208       TNMStrm.PostIt
 0001:0001835C       TNMStrm.Abort
 0001:00018378       TNMStrmServ.Create
 0001:000183B8       TNMStrmServ.Serve
 0001:00018540       Finalization
 0001:00018570       NMSTRM
 0001:00018674       TNMTime.Create
 0001:000186C0       TNMTime.GetTimeStr
 0001:00018A90       TNMTime.GetTimeInt
 0001:00018E20       Finalization
 0001:00018E50       NMTime
 0001:00019288       TNMUDP.Create
 0001:00019408       TNMUDP.Destroy
 0001:00019448       TNMUDP.SetLocalPort
 0001:0001952C       TNMUDP.Loaded
 0001:000195B8       TNMUDP.ResolveRemoteHost
 0001:0001972C       TNMUDP.SendStream
 0001:000198EC       TNMUDP.SendBuffer
 0001:00019A8C       TNMUDP.ErrorManager
 0001:00019B88       TNMUDP.SocketErrorStr
 0001:00019C50       TNMUDP.StatusMessage
 0001:00019CD0       TNMUDP.WndProc
 0001:00019D10       TNMUDP.ProcessIncomingdata
 0001:00019E04       TNMUDP.ReadStream
 0001:00019E24       TNMUDP.ReadBuffer
 0001:00019E48       Finalization
 0001:00019E78       NMUDP
 0001:0001A088       @GetPackageInfoTable
 0001:0001A090       @PackageLoad
 0001:0001A09C       @PackageUnload
 0001:0001A0A8       nmfast
 0002:00000000       Module
 0002:00000018       TlsProc
 0002:00000028       UUTABLE
 0002:00000068       MimeTable
 0002:000000A8       base64Table
 0002:000000F8       WinsockMessage
 0002:00000C20       PsockWindowClass
 0002:00000C48       TmrWindowClass
 0002:00000C70       Stable
 0002:00000C94       BufferSize
 0002:00001000       ModuleIsLib
 0002:00001001       ModuleIsPackage
 0002:00001004       TlsIndex
 0002:0000100C       HInstance
 0002:00001010       .1
 0002:00001014       tlsBuffer
 0002:00001018       .3
 0002:0000101C       .1
 0002:00001020       .1
 0002:00001024       .2
 0002:00001028       .1
 0002:0000102C       .1
 0002:00001030       .1
 0002:00001034       .1
 0002:00001038       .1
 0002:0000103C       .1
 0002:00001040       .1
 0002:00001044       .3
 0002:00001048       .1
 0002:0000104C       .1
 0002:00001050       .1
 0002:00001054       .8
 0002:00001058       CounterLock
 0002:00001070       WCount
 0002:00001074       .2
 0002:00001078       .2
 0002:0000107C       .2
 0002:00001080       .31
 0002:00001084       .2
 0002:00001088       .2
 0002:0000108C       .4
 0002:00001090       .3
 0002:00001094       .5
 0002:00001098       .4
 0002:0000109C       Readindex
 0002:000010A0       TFileIndex
 0002:000010A4       .1
 0002:000010A8       .2
 0002:000010AC       .3
 0002:000010B0       mailcount
 0002:000010B4       .3
 0002:000010B8       .2
 0002:000010BC       .3


Bound resource files

nmshow.dfm
nmfast.res
C:\TEMP\dtf2B1B.tmp


Program entry point at 0001:0001A0A8
