
 Start         Length     Name                   Class
 0001:00000000 000075A4H .text                   CODE
 0002:00000000 00000094H .data                   DATA
 0002:00000094 000000BDH .bss                    BSS


Detailed map of segments

 0001:00000000 0000025E C=CODE     S=.text    G=(none)   M=System   ACBP=A9
 0001:00000260 000001EC C=CODE     S=.text    G=(none)   M=SysInit  ACBP=A9
 0001:0000044C 0000003E C=CODE     S=.text    G=(none)   M=Variants ACBP=A9
 0001:0000048C 0000000E C=CODE     S=.text    G=(none)   M=Types    ACBP=A9
 0001:0000049C 0000000E C=CODE     S=.text    G=(none)   M=VarUtils ACBP=A9
 0001:000004AC 00000096 C=CODE     S=.text    G=(none)   M=SysUtils ACBP=A9
 0001:00000544 0000000E C=CODE     S=.text    G=(none)   M=SysConst ACBP=A9
 0001:00000554 000000C0 C=CODE     S=.text    G=(none)   M=Windows  ACBP=A9
 0001:00000614 00000026 C=CODE     S=.text    G=(none)   M=ActiveX  ACBP=A9
 0001:0000063C 00000038 C=CODE     S=.text    G=(none)   M=Messages ACBP=A9
 0001:00000674 000000B0 C=CODE     S=.text    G=(none)   M=CorbCnst ACBP=A9
 0001:00000724 00000A3C C=CODE     S=.text    G=(none)   M=OrbPas   ACBP=A9
 0001:00001160 000039B4 C=CODE     S=.text    G=(none)   M=CorbaObj ACBP=A9
 0001:00004B14 0000004E C=CODE     S=.text    G=(none)   M=DataBkr  ACBP=A9
 0001:00004B64 0000000E C=CODE     S=.text    G=(none)   M=Provider ACBP=A9
 0001:00004B74 0000000E C=CODE     S=.text    G=(none)   M=SqlTimSt ACBP=A9
 0001:00004B84 000000CE C=CODE     S=.text    G=(none)   M=Classes  ACBP=A9
 0001:00004C54 0000000E C=CODE     S=.text    G=(none)   M=TypInfo  ACBP=A9
 0001:00004C64 0000000E C=CODE     S=.text    G=(none)   M=RTLConsts ACBP=A9
 0001:00004C74 0000000E C=CODE     S=.text    G=(none)   M=DBConsts ACBP=A9
 0001:00004C84 0000000E C=CODE     S=.text    G=(none)   M=DateUtils ACBP=A9
 0001:00004C94 0000000E C=CODE     S=.text    G=(none)   M=Math     ACBP=A9
 0001:00004CA4 0000000E C=CODE     S=.text    G=(none)   M=Midas    ACBP=A9
 0001:00004CB4 0000000E C=CODE     S=.text    G=(none)   M=DSIntf   ACBP=A9
 0001:00004CC4 0000000E C=CODE     S=.text    G=(none)   M=DBCommon ACBP=A9
 0001:00004CD4 00000046 C=CODE     S=.text    G=(none)   M=DB       ACBP=A9
 0001:00004D1C 0000000E C=CODE     S=.text    G=(none)   M=FMTBcd   ACBP=A9
 0001:00004D2C 0000000E C=CODE     S=.text    G=(none)   M=MaskUtils ACBP=A9
 0001:00004D3C 0000000E C=CODE     S=.text    G=(none)   M=ComObj   ACBP=A9
 0001:00004D4C 0000000E C=CODE     S=.text    G=(none)   M=ComConst ACBP=A9
 0001:00004D5C 0000000E C=CODE     S=.text    G=(none)   M=MidConst ACBP=A9
 0001:00004D6C 00000036 C=CODE     S=.text    G=(none)   M=DBClient ACBP=A9
 0001:00004DA4 00000114 C=CODE     S=.text    G=(none)   M=CorbaRdm ACBP=A9
 0001:00004EB8 00000016 C=CODE     S=.text    G=(none)   M=Forms    ACBP=A9
 0001:00004ED0 0000000E C=CODE     S=.text    G=(none)   M=HelpIntfs ACBP=A9
 0001:00004EE0 0000000E C=CODE     S=.text    G=(none)   M=Contnrs  ACBP=A9
 0001:00004EF0 0000000E C=CODE     S=.text    G=(none)   M=MultiMon ACBP=A9
 0001:00004F00 0000000E C=CODE     S=.text    G=(none)   M=ActnList ACBP=A9
 0001:00004F10 0000000E C=CODE     S=.text    G=(none)   M=ImgList  ACBP=A9
 0001:00004F20 00000038 C=CODE     S=.text    G=(none)   M=CommCtrl ACBP=A9
 0001:00004F58 0000000E C=CODE     S=.text    G=(none)   M=Graphics ACBP=A9
 0001:00004F68 0000000E C=CODE     S=.text    G=(none)   M=Consts   ACBP=A9
 0001:00004F78 00000016 C=CODE     S=.text    G=(none)   M=Controls ACBP=A9
 0001:00004F90 00000038 C=CODE     S=.text    G=(none)   M=Imm      ACBP=A9
 0001:00004FC8 0000000E C=CODE     S=.text    G=(none)   M=Menus    ACBP=A9
 0001:00004FD8 0000000E C=CODE     S=.text    G=(none)   M=WinHelpViewer ACBP=A9
 0001:00004FE8 0000000E C=CODE     S=.text    G=(none)   M=StdActns ACBP=A9
 0001:00004FF8 00000016 C=CODE     S=.text    G=(none)   M=Dialogs  ACBP=A9
 0001:00005010 00000038 C=CODE     S=.text    G=(none)   M=ShlObj   ACBP=A9
 0001:00005048 00000038 C=CODE     S=.text    G=(none)   M=UrlMon   ACBP=A9
 0001:00005080 00000038 C=CODE     S=.text    G=(none)   M=WinInet  ACBP=A9
 0001:000050B8 00000038 C=CODE     S=.text    G=(none)   M=RegStr   ACBP=A9
 0001:000050F0 00000038 C=CODE     S=.text    G=(none)   M=ShellAPI ACBP=A9
 0001:00005128 0000000E C=CODE     S=.text    G=(none)   M=Printers ACBP=A9
 0001:00005138 00000038 C=CODE     S=.text    G=(none)   M=WinSpool ACBP=A9
 0001:00005170 0000000E C=CODE     S=.text    G=(none)   M=StdCtrls ACBP=A9
 0001:00005180 00000038 C=CODE     S=.text    G=(none)   M=CommDlg  ACBP=A9
 0001:000051B8 00000038 C=CODE     S=.text    G=(none)   M=Dlgs     ACBP=A9
 0001:000051F0 0000000E C=CODE     S=.text    G=(none)   M=ExtCtrls ACBP=A9
 0001:00005200 0000000E C=CODE     S=.text    G=(none)   M=StrUtils ACBP=A9
 0001:00005210 0000000E C=CODE     S=.text    G=(none)   M=Clipbrd  ACBP=A9
 0001:00005220 0000000E C=CODE     S=.text    G=(none)   M=FlatSB   ACBP=A9
 0001:00005230 00001254 C=CODE     S=.text    G=(none)   M=CorbaStd ACBP=A9
 0001:00006484 0000000E C=CODE     S=.text    G=(none)   M=Registry ACBP=A9
 0001:00006494 0000000E C=CODE     S=.text    G=(none)   M=IniFiles ACBP=A9
 0001:000064A4 00000EB8 C=CODE     S=.text    G=(none)   M=corbacon ACBP=A9
 0001:0000735C 00000245 C=CODE     S=.text    G=(none)   M=dsnapcrba ACBP=A9
 0002:00000000 00000028 C=DATA     S=.data    G=DGROUP   M=SysInit  ACBP=A9
 0002:00000028 00000004 C=DATA     S=.data    G=DGROUP   M=OrbPas   ACBP=A9
 0002:0000002C 00000001 C=DATA     S=.data    G=DGROUP   M=CorbaObj ACBP=A9
 0002:00001000 00000018 C=BSS      S=.bss     G=DGROUP   M=SysInit  ACBP=A9
 0002:00001018 00000004 C=BSS      S=.bss     G=DGROUP   M=Windows  ACBP=A9
 0002:0000101C 00000004 C=BSS      S=.bss     G=DGROUP   M=Messages ACBP=A9
 0002:00001020 00000004 C=BSS      S=.bss     G=DGROUP   M=CorbCnst ACBP=A9
 0002:00001024 0000003C C=BSS      S=.bss     G=DGROUP   M=OrbPas   ACBP=A9
 0002:00001060 00000028 C=BSS      S=.bss     G=DGROUP   M=CorbaObj ACBP=A9
 0002:00001088 00000004 C=BSS      S=.bss     G=DGROUP   M=CorbaRdm ACBP=A9
 0002:0000108C 00000004 C=BSS      S=.bss     G=DGROUP   M=CommCtrl ACBP=A9
 0002:00001090 00000004 C=BSS      S=.bss     G=DGROUP   M=Imm      ACBP=A9
 0002:00001094 00000004 C=BSS      S=.bss     G=DGROUP   M=ShlObj   ACBP=A9
 0002:00001098 00000004 C=BSS      S=.bss     G=DGROUP   M=UrlMon   ACBP=A9
 0002:0000109C 00000004 C=BSS      S=.bss     G=DGROUP   M=WinInet  ACBP=A9
 0002:000010A0 00000004 C=BSS      S=.bss     G=DGROUP   M=RegStr   ACBP=A9
 0002:000010A4 00000004 C=BSS      S=.bss     G=DGROUP   M=ShellAPI ACBP=A9
 0002:000010A8 00000004 C=BSS      S=.bss     G=DGROUP   M=WinSpool ACBP=A9
 0002:000010AC 00000004 C=BSS      S=.bss     G=DGROUP   M=CommDlg  ACBP=A9
 0002:000010B0 00000004 C=BSS      S=.bss     G=DGROUP   M=Dlgs     ACBP=A9
 0002:000010B4 00000004 C=BSS      S=.bss     G=DGROUP   M=CorbaStd ACBP=A9
 0002:000010B8 00000004 C=BSS      S=.bss     G=DGROUP   M=corbacon ACBP=A9


  Address         Publics by Name

 0002:000010AC       .1
 0002:000010B0       .1
 0002:00001090       .1
 0002:0000108C       .1
 0002:0000101C       .1
 0002:00001010       .1
 0002:00001020       .1
 0002:00001094       .1
 0002:0000109C       .1
 0002:00001024       .1
 0002:000010A4       .1
 0002:00001098       .1
 0002:000010A0       .1
 0002:00001088       .2
 0002:000010B8       .2
 0002:000010A8       .3
 0002:000010B4       .3
 0002:00001018       .3
 0002:0000106C       .71
 0001:0000757C       @GetPackageInfoTable
 0001:00000398       @InitPkg
 0001:00007584       @PackageLoad
 0001:000003FC       @PackageLoad
 0001:00007590       @PackageUnload
 0001:00000408       @PackageUnload
 0001:00000298       AllocTlsBuffer
 0001:00003DF8       AnyToObject
 0001:00001084       AnyToVariant
 0002:0000104C       AnyToVariantProc
 0001:00001028       BindStub
 0002:00001044       BindStubProc
 0001:0000437C       BOA
 0002:00001074       BOAVar
 0001:00004460       ChangeAnyImpl
 0001:00004444       ClearAnyImpl
 0001:00000554       CloseHandle
 0001:00004F50       CommCtrl
 0001:000051B0       CommDlg
 0001:00000FB0       CorbaAnyType
 0002:00001038       CorbaAnyTypeProc
 0001:000043E8       CorbaBind
 0001:000043C0       CorbaBind
 0001:00007354       corbacon
 0001:00004538       CorbaDispatchError
 0001:000044F4       CorbaDispProc
 0001:00000F80       CorbaDuplicateAny
 0002:0000103C       CorbaDuplicateAnyProc
 0001:0000423C       CorbaFactoryCreateStub
 0002:00001070       CorbaFactoryManager
 0001:0000492C       CorbaGetExceptClass
 0001:00004954       CorbaGetExceptObject
 0001:00004874       CorbaHookDispatch
 0001:000049CC       CorbaHookExceptions
 0001:00004390       CorbaInitialize
 0002:00001068       CorbaInterfaceIDManager
 0001:00004AA0       CorbaObj
 0001:00004770       CorbaObjectDispatch
 0001:00004EB0       CorbaRdm
 0001:00000F98       CorbaReleaseAny
 0002:00001034       CorbaReleaseAnyProc
 0002:00001060       CorbaSkeletonManager
 0001:0000643C       CorbaStd
 0001:00000F50       CorbaStringFree
 0002:0000102C       CorbaStringFreeProc
 0001:000046E8       CorbaStructDispatch
 0002:00001064       CorbaStubManager
 0001:000048B8       CorbaUnhookDispatch
 0001:000049FC       CorbaUnhookExceptions
 0001:00000F68       CorbaWStringFree
 0002:00001030       CorbaWStringFreeProc
 0001:0000071C       CorbCnst
 0001:0000055C       CreateEvent
 0001:00000FE0       CreateSkeleton
 0002:00001040       CreateSkeletonProc
 0001:000010CC       CreateUserException
 0002:00001054       CreateUserExceptionProc
 0001:00000564       DeleteCriticalSection
 0001:000051E8       Dlgs
 0001:0000759C       dsnapcrba
 0001:00001F98       ECorbaException.GetMessage
 0001:00001FAC       ECorbaUserException.Create
 0001:00001FF8       ECorbaUserException.Throw
 0001:0000056C       EnterCriticalSection
 0001:00000344       ExitProcessTLS
 0001:0000031C       ExitThreadTLS
 0001:000050F0       Finalization
 0001:000006EC       Finalization
 0001:000051B8       Finalization
 0001:00001128       Finalization
 0001:00004F90       Finalization
 0001:0000063C       Finalization
 0001:00005138       Finalization
 0001:000005DC       Finalization
 0001:00005180       Finalization
 0001:0000640C       Finalization
 0001:00004A28       Finalization
 0001:00004F20       Finalization
 0001:00004E80       Finalization
 0001:00005010       Finalization
 0001:000050B8       Finalization
 0001:00005080       Finalization
 0001:00000414       Finalization
 0001:00005048       Finalization
 0001:00007324       Finalization
 0001:00000260       FreeLibrary
 0001:00000584       GetLastError
 0001:0000058C       GetModuleFileName
 0001:00000594       GetProcAddress
 0001:0000059C       GetTickCount
 0001:000002A4       GetTlsSize
 0001:00003950       GetVarArray
 0002:0000100C       HInstance
 0001:00004FC0       Imm
 0001:000005A4       InitializeCriticalSection
 0002:0000002C       Initialized
 0001:00000368       InitializeModule
 0001:00000F14       InitORB
 0002:00001028       InitOrbProc
 0001:000002F0       InitProcessTLS
 0001:000002AC       InitThreadTLS
 0001:00000574       InterlockedDecrement
 0001:0000057C       InterlockedIncrement
 0001:000034AC       InternalBind
 0001:00004900       IsCorba
 0001:000005AC       LeaveCriticalSection
 0001:000005B4       LoadLibrary
 0001:00000BFC       LoadOrbProcs
 0001:00000268       LocalAlloc
 0001:00000270       LocalFree
 0001:00004410       MakePrincipal
 0001:0000410C       MarshalAny
 0001:00003F1C       MarshalObject
 0001:00004210       MarshalWordBool
 0001:0000066C       Messages
 0001:00004514       MethodName
 0002:00000000       Module
 0002:00001000       ModuleIsLib
 0002:00001001       ModuleIsPackage
 0001:000005CC       MsgWaitForMultipleObjects
 0002:00001080       OldExceptClassProc
 0002:00001084       OldExceptObjectProc
 0002:0000107C       OldVarDispProc
 0001:00004368       ORB
 0002:00000028       OrbDll
 0001:00001158       OrbPas
 0002:00001078       ORBVar
 0001:00000B78       PascalChangeTypeImpl
 0001:00000B28       PascalClearVariantImpl
 0001:000005D4       PostMessage
 0001:000044E8       RefAnyImpl
 0001:000010F0       RegisterUserException
 0002:00001058       RegisterUserExceptionProc
 0001:000050E8       RegStr
 0001:000005BC       ResetEvent
 0001:000010A8       SequenceToVariant
 0001:00003D54       SequenceToVariantArray
 0002:00001050       SequenceToVariantProc
 0001:00005120       ShellAPI
 0001:00005040       ShlObj
 0001:00006B40       ShowConnectDialog
 0001:00000444       SysInit
 0001:000055DC       TAppServerSkeleton.AS_ApplyUpdates
 0001:0000584C       TAppServerSkeleton.AS_DataRequest
 0001:00005B98       TAppServerSkeleton.AS_Execute
 0001:000059A8       TAppServerSkeleton.AS_GetParams
 0001:00005924       TAppServerSkeleton.AS_GetProviderNames
 0001:00005700       TAppServerSkeleton.AS_GetRecords
 0001:00005A84       TAppServerSkeleton.AS_RowRequest
 0001:00005500       TAppServerSkeleton.Create
 0001:000055B8       TAppServerSkeleton.GetImplementation
 0001:00005CA0       TAppServerStub.AS_ApplyUpdates
 0001:00005F30       TAppServerStub.AS_DataRequest
 0001:0000630C       TAppServerStub.AS_Execute
 0001:000060E4       TAppServerStub.AS_GetParams
 0001:0000601C       TAppServerStub.AS_GetProviderNames
 0001:00005DD8       TAppServerStub.AS_GetRecords
 0001:000061E4       TAppServerStub.AS_RowRequest
 0001:000032FC       TBOA.Deactivate
 0001:00003224       TBOA.GetPrincipal
 0001:00003364       TBOA.ImplIsReady
 0001:000031E0       TBOA.Initialize
 0001:00003370       TBOA.ObjIsReady
 0001:00006928       TCorbaBindThread.Cancel
 0001:00006824       TCorbaBindThread.Create
 0001:000068E0       TCorbaBindThread.Destroy
 0001:00006980       TCorbaBindThread.Execute
 0001:00006AE4       TCorbaBindThread.MarkFreeable
 0001:00006AF0       TCorbaBindThread.SetDialogHandle
 0001:00006D4C       TCorbaConnection.Create
 0001:00006F64       TCorbaConnection.DoConnect
 0001:00006F14       TCorbaConnection.DoDisconnect
 0001:00006E20       TCorbaConnection.GetConnected
 0001:0000729C       TCorbaConnection.GetServer
 0001:00006EB0       TCorbaConnection.SetConnected
 0001:00006DEC       TCorbaConnection.SetHostName
 0001:00006DB8       TCorbaConnection.SetObjectName
 0001:00006D84       TCorbaConnection.SetRepositoryId
 0001:0000727C       TCorbaConnection.ThreadTimeout
 0001:000022D4       TCorbaDispatchStub.GetIDsOfNames
 0001:000022E0       TCorbaDispatchStub.GetTypeInfo
 0001:000022EC       TCorbaDispatchStub.GetTypeInfoCount
 0001:000022F8       TCorbaDispatchStub.Invoke
 0001:00002ACC       TCorbaFactory.Create
 0001:00002D74       TCorbaFactory.CreateInstance
 0001:00002DEC       TCorbaFactory.CreateInterface
 0001:00002B54       TCorbaFactory.Destroy
 0001:00002BC4       TCorbaFactory.Execute
 0001:00002BA8       TCorbaFactory.GetImplementation
 0001:00002B84       TCorbaFactory.GetSkeleton
 0001:00002E04       TCorbaFactory.GetTypeInfo
 0001:00002CE8       TCorbaFactory.RegisterFactory
 0001:00002F20       TCorbaFactoryManager.AddFactory
 0001:00002EDC       TCorbaFactoryManager.Destroy
 0001:00003094       TCorbaFactoryManager.Find
 0001:00002FD0       TCorbaFactoryManager.RegisterFactories
 0001:00002934       TCorbaImplementation.Create
 0001:00002A88       TCorbaImplementation.GetIDsOfNames
 0001:00002A94       TCorbaImplementation.GetTypeInfo
 0001:00002AAC       TCorbaImplementation.GetTypeInfoCount
 0001:00002AC0       TCorbaImplementation.Invoke
 0001:000029F8       TCorbaImplementation.ObjAddRef
 0001:00002A0C       TCorbaImplementation.ObjQueryInterface
 0001:00002A34       TCorbaImplementation.ObjRelease
 0001:00002A5C       TCorbaImplementation.QueryInterface
 0001:000029B4       TCorbaImplementation._AddRef
 0001:000029D4       TCorbaImplementation._Release
 0001:000023D0       TCorbaInterfaceIDManager.FindGUID
 0001:00002394       TCorbaInterfaceIDManager.FindID
 0001:00002414       TCorbaInterfaceIDManager.RegisterInterface
 0001:000024D4       TCorbaInterfaceIDManager.SearchGUID
 0001:00002568       TCorbaInterfaceIDManager.SearchID
 0001:00002364       TCorbaListManager.BeginRead
 0001:00002370       TCorbaListManager.BeginWrite
 0001:00002304       TCorbaListManager.Create
 0001:00002340       TCorbaListManager.Destroy
 0001:0000237C       TCorbaListManager.EndRead
 0001:00002388       TCorbaListManager.EndWrite
 0001:00003164       TCorbaObjectFactory.Create
 0001:000031BC       TCorbaObjectFactory.CreateInterface
 0001:00002004       TCorbaSkeleton.Create
 0001:00002040       TCorbaSkeleton.Destroy
 0001:00002120       TCorbaSkeleton.Execute
 0001:00002104       TCorbaSkeleton.GetImplementation
 0001:000020E0       TCorbaSkeleton.GetSkeleton
 0001:00002070       TCorbaSkeleton.InitSkeleton
 0001:000026D4       TCorbaSkeletonManager.CreateSkeleton
 0001:0000260C       TCorbaSkeletonManager.RegisterSkeleton
 0001:000021AC       TCorbaStub.Create
 0001:000021F0       TCorbaStub.Destroy
 0001:00002254       TCorbaStub.GetStub
 0001:00002278       TCorbaStub.Hash
 0001:0000228C       TCorbaStub.IsA
 0001:000022A4       TCorbaStub.NonExistent
 0001:000022B8       TCorbaStub.SetPrincipal
 0001:00002874       TCorbaStubManager.CreateStub
 0001:000027AC       TCorbaStubManager.RegisterStub
 0001:00006BA8       ThreadedBind
 0001:00000278       TlsAlloc
 0002:00001014       tlsBuffer
 0001:00000280       TlsFree
 0001:00000288       TlsGetValue
 0002:00001004       TlsIndex
 0002:BFB27000       TlsLast
 0002:00000018       TlsProc
 0001:00000290       TlsSetValue
 0001:0000355C       TORB.Bind
 0001:000034E0       TORB.Bind
 0001:000037A0       TORB.FindTypeCode
 0001:000033D8       TORB.Initialize
 0001:00003404       TORB.Initialize
 0001:000039D4       TORB.MakeAlias
 0001:00003B9C       TORB.MakeAliasTypeCode
 0001:000037C8       TORB.MakeArray
 0001:00003830       TORB.MakeArray
 0001:00003BF0       TORB.MakeComplexAny
 0001:00003BC8       TORB.MakeObjectRefTypeCode
 0001:0000388C       TORB.MakeSequence
 0001:000038F4       TORB.MakeSequence
 0001:00003B04       TORB.MakeSequenceTypeCode
 0001:00003978       TORB.MakeStructure
 0001:00003B2C       TORB.MakeStructureTypeCode
 0001:00003AE4       TORB.MakeTypeCode
 0001:000035F8       TORB.ObjectToString
 0001:00003794       TORB.Shutdown
 0001:000036BC       TORB.StringToObject
 0001:00000374       UninitializeModule
 0001:00004158       UnmarshalAny
 0001:00004018       UnmarshalObject
 0001:000041BC       UnmarshalText
 0001:000041F0       UnmarshalWideText
 0001:00004228       UnmarshalWordBool
 0001:00001110       UnRegisterUserException
 0002:0000105C       UnRegisterUserExceptionProc
 0001:00005078       UrlMon
 0001:00000EF4       ValidateProc
 0001:00003C58       VariantArrayToSequence
 0001:0000106C       VariantToAny
 0002:00001048       VariantToAnyProc
 0001:000005C4       WaitForSingleObject
 0001:0000060C       Windows
 0001:000050B0       WinInet
 0001:00005168       WinSpool


  Address         Publics by Value

 0002:BFB27000       TlsLast
 0001:00000260       FreeLibrary
 0001:00000268       LocalAlloc
 0001:00000270       LocalFree
 0001:00000278       TlsAlloc
 0001:00000280       TlsFree
 0001:00000288       TlsGetValue
 0001:00000290       TlsSetValue
 0001:00000298       AllocTlsBuffer
 0001:000002A4       GetTlsSize
 0001:000002AC       InitThreadTLS
 0001:000002F0       InitProcessTLS
 0001:0000031C       ExitThreadTLS
 0001:00000344       ExitProcessTLS
 0001:00000368       InitializeModule
 0001:00000374       UninitializeModule
 0001:00000398       @InitPkg
 0001:000003FC       @PackageLoad
 0001:00000408       @PackageUnload
 0001:00000414       Finalization
 0001:00000444       SysInit
 0001:00000554       CloseHandle
 0001:0000055C       CreateEvent
 0001:00000564       DeleteCriticalSection
 0001:0000056C       EnterCriticalSection
 0001:00000574       InterlockedDecrement
 0001:0000057C       InterlockedIncrement
 0001:00000584       GetLastError
 0001:0000058C       GetModuleFileName
 0001:00000594       GetProcAddress
 0001:0000059C       GetTickCount
 0001:000005A4       InitializeCriticalSection
 0001:000005AC       LeaveCriticalSection
 0001:000005B4       LoadLibrary
 0001:000005BC       ResetEvent
 0001:000005C4       WaitForSingleObject
 0001:000005CC       MsgWaitForMultipleObjects
 0001:000005D4       PostMessage
 0001:000005DC       Finalization
 0001:0000060C       Windows
 0001:0000063C       Finalization
 0001:0000066C       Messages
 0001:000006EC       Finalization
 0001:0000071C       CorbCnst
 0001:00000B28       PascalClearVariantImpl
 0001:00000B78       PascalChangeTypeImpl
 0001:00000BFC       LoadOrbProcs
 0001:00000EF4       ValidateProc
 0001:00000F14       InitORB
 0001:00000F50       CorbaStringFree
 0001:00000F68       CorbaWStringFree
 0001:00000F80       CorbaDuplicateAny
 0001:00000F98       CorbaReleaseAny
 0001:00000FB0       CorbaAnyType
 0001:00000FE0       CreateSkeleton
 0001:00001028       BindStub
 0001:0000106C       VariantToAny
 0001:00001084       AnyToVariant
 0001:000010A8       SequenceToVariant
 0001:000010CC       CreateUserException
 0001:000010F0       RegisterUserException
 0001:00001110       UnRegisterUserException
 0001:00001128       Finalization
 0001:00001158       OrbPas
 0001:00001F98       ECorbaException.GetMessage
 0001:00001FAC       ECorbaUserException.Create
 0001:00001FF8       ECorbaUserException.Throw
 0001:00002004       TCorbaSkeleton.Create
 0001:00002040       TCorbaSkeleton.Destroy
 0001:00002070       TCorbaSkeleton.InitSkeleton
 0001:000020E0       TCorbaSkeleton.GetSkeleton
 0001:00002104       TCorbaSkeleton.GetImplementation
 0001:00002120       TCorbaSkeleton.Execute
 0001:000021AC       TCorbaStub.Create
 0001:000021F0       TCorbaStub.Destroy
 0001:00002254       TCorbaStub.GetStub
 0001:00002278       TCorbaStub.Hash
 0001:0000228C       TCorbaStub.IsA
 0001:000022A4       TCorbaStub.NonExistent
 0001:000022B8       TCorbaStub.SetPrincipal
 0001:000022D4       TCorbaDispatchStub.GetIDsOfNames
 0001:000022E0       TCorbaDispatchStub.GetTypeInfo
 0001:000022EC       TCorbaDispatchStub.GetTypeInfoCount
 0001:000022F8       TCorbaDispatchStub.Invoke
 0001:00002304       TCorbaListManager.Create
 0001:00002340       TCorbaListManager.Destroy
 0001:00002364       TCorbaListManager.BeginRead
 0001:00002370       TCorbaListManager.BeginWrite
 0001:0000237C       TCorbaListManager.EndRead
 0001:00002388       TCorbaListManager.EndWrite
 0001:00002394       TCorbaInterfaceIDManager.FindID
 0001:000023D0       TCorbaInterfaceIDManager.FindGUID
 0001:00002414       TCorbaInterfaceIDManager.RegisterInterface
 0001:000024D4       TCorbaInterfaceIDManager.SearchGUID
 0001:00002568       TCorbaInterfaceIDManager.SearchID
 0001:0000260C       TCorbaSkeletonManager.RegisterSkeleton
 0001:000026D4       TCorbaSkeletonManager.CreateSkeleton
 0001:000027AC       TCorbaStubManager.RegisterStub
 0001:00002874       TCorbaStubManager.CreateStub
 0001:00002934       TCorbaImplementation.Create
 0001:000029B4       TCorbaImplementation._AddRef
 0001:000029D4       TCorbaImplementation._Release
 0001:000029F8       TCorbaImplementation.ObjAddRef
 0001:00002A0C       TCorbaImplementation.ObjQueryInterface
 0001:00002A34       TCorbaImplementation.ObjRelease
 0001:00002A5C       TCorbaImplementation.QueryInterface
 0001:00002A88       TCorbaImplementation.GetIDsOfNames
 0001:00002A94       TCorbaImplementation.GetTypeInfo
 0001:00002AAC       TCorbaImplementation.GetTypeInfoCount
 0001:00002AC0       TCorbaImplementation.Invoke
 0001:00002ACC       TCorbaFactory.Create
 0001:00002B54       TCorbaFactory.Destroy
 0001:00002B84       TCorbaFactory.GetSkeleton
 0001:00002BA8       TCorbaFactory.GetImplementation
 0001:00002BC4       TCorbaFactory.Execute
 0001:00002CE8       TCorbaFactory.RegisterFactory
 0001:00002D74       TCorbaFactory.CreateInstance
 0001:00002DEC       TCorbaFactory.CreateInterface
 0001:00002E04       TCorbaFactory.GetTypeInfo
 0001:00002EDC       TCorbaFactoryManager.Destroy
 0001:00002F20       TCorbaFactoryManager.AddFactory
 0001:00002FD0       TCorbaFactoryManager.RegisterFactories
 0001:00003094       TCorbaFactoryManager.Find
 0001:00003164       TCorbaObjectFactory.Create
 0001:000031BC       TCorbaObjectFactory.CreateInterface
 0001:000031E0       TBOA.Initialize
 0001:00003224       TBOA.GetPrincipal
 0001:000032FC       TBOA.Deactivate
 0001:00003364       TBOA.ImplIsReady
 0001:00003370       TBOA.ObjIsReady
 0001:000033D8       TORB.Initialize
 0001:00003404       TORB.Initialize
 0001:000034AC       InternalBind
 0001:000034E0       TORB.Bind
 0001:0000355C       TORB.Bind
 0001:000035F8       TORB.ObjectToString
 0001:000036BC       TORB.StringToObject
 0001:00003794       TORB.Shutdown
 0001:000037A0       TORB.FindTypeCode
 0001:000037C8       TORB.MakeArray
 0001:00003830       TORB.MakeArray
 0001:0000388C       TORB.MakeSequence
 0001:000038F4       TORB.MakeSequence
 0001:00003950       GetVarArray
 0001:00003978       TORB.MakeStructure
 0001:000039D4       TORB.MakeAlias
 0001:00003AE4       TORB.MakeTypeCode
 0001:00003B04       TORB.MakeSequenceTypeCode
 0001:00003B2C       TORB.MakeStructureTypeCode
 0001:00003B9C       TORB.MakeAliasTypeCode
 0001:00003BC8       TORB.MakeObjectRefTypeCode
 0001:00003BF0       TORB.MakeComplexAny
 0001:00003C58       VariantArrayToSequence
 0001:00003D54       SequenceToVariantArray
 0001:00003DF8       AnyToObject
 0001:00003F1C       MarshalObject
 0001:00004018       UnmarshalObject
 0001:0000410C       MarshalAny
 0001:00004158       UnmarshalAny
 0001:000041BC       UnmarshalText
 0001:000041F0       UnmarshalWideText
 0001:00004210       MarshalWordBool
 0001:00004228       UnmarshalWordBool
 0001:0000423C       CorbaFactoryCreateStub
 0001:00004368       ORB
 0001:0000437C       BOA
 0001:00004390       CorbaInitialize
 0001:000043C0       CorbaBind
 0001:000043E8       CorbaBind
 0001:00004410       MakePrincipal
 0001:00004444       ClearAnyImpl
 0001:00004460       ChangeAnyImpl
 0001:000044E8       RefAnyImpl
 0001:000044F4       CorbaDispProc
 0001:00004514       MethodName
 0001:00004538       CorbaDispatchError
 0001:000046E8       CorbaStructDispatch
 0001:00004770       CorbaObjectDispatch
 0001:00004874       CorbaHookDispatch
 0001:000048B8       CorbaUnhookDispatch
 0001:00004900       IsCorba
 0001:0000492C       CorbaGetExceptClass
 0001:00004954       CorbaGetExceptObject
 0001:000049CC       CorbaHookExceptions
 0001:000049FC       CorbaUnhookExceptions
 0001:00004A28       Finalization
 0001:00004AA0       CorbaObj
 0001:00004E80       Finalization
 0001:00004EB0       CorbaRdm
 0001:00004F20       Finalization
 0001:00004F50       CommCtrl
 0001:00004F90       Finalization
 0001:00004FC0       Imm
 0001:00005010       Finalization
 0001:00005040       ShlObj
 0001:00005048       Finalization
 0001:00005078       UrlMon
 0001:00005080       Finalization
 0001:000050B0       WinInet
 0001:000050B8       Finalization
 0001:000050E8       RegStr
 0001:000050F0       Finalization
 0001:00005120       ShellAPI
 0001:00005138       Finalization
 0001:00005168       WinSpool
 0001:00005180       Finalization
 0001:000051B0       CommDlg
 0001:000051B8       Finalization
 0001:000051E8       Dlgs
 0001:00005500       TAppServerSkeleton.Create
 0001:000055B8       TAppServerSkeleton.GetImplementation
 0001:000055DC       TAppServerSkeleton.AS_ApplyUpdates
 0001:00005700       TAppServerSkeleton.AS_GetRecords
 0001:0000584C       TAppServerSkeleton.AS_DataRequest
 0001:00005924       TAppServerSkeleton.AS_GetProviderNames
 0001:000059A8       TAppServerSkeleton.AS_GetParams
 0001:00005A84       TAppServerSkeleton.AS_RowRequest
 0001:00005B98       TAppServerSkeleton.AS_Execute
 0001:00005CA0       TAppServerStub.AS_ApplyUpdates
 0001:00005DD8       TAppServerStub.AS_GetRecords
 0001:00005F30       TAppServerStub.AS_DataRequest
 0001:0000601C       TAppServerStub.AS_GetProviderNames
 0001:000060E4       TAppServerStub.AS_GetParams
 0001:000061E4       TAppServerStub.AS_RowRequest
 0001:0000630C       TAppServerStub.AS_Execute
 0001:0000640C       Finalization
 0001:0000643C       CorbaStd
 0001:00006824       TCorbaBindThread.Create
 0001:000068E0       TCorbaBindThread.Destroy
 0001:00006928       TCorbaBindThread.Cancel
 0001:00006980       TCorbaBindThread.Execute
 0001:00006AE4       TCorbaBindThread.MarkFreeable
 0001:00006AF0       TCorbaBindThread.SetDialogHandle
 0001:00006B40       ShowConnectDialog
 0001:00006BA8       ThreadedBind
 0001:00006D4C       TCorbaConnection.Create
 0001:00006D84       TCorbaConnection.SetRepositoryId
 0001:00006DB8       TCorbaConnection.SetObjectName
 0001:00006DEC       TCorbaConnection.SetHostName
 0001:00006E20       TCorbaConnection.GetConnected
 0001:00006EB0       TCorbaConnection.SetConnected
 0001:00006F14       TCorbaConnection.DoDisconnect
 0001:00006F64       TCorbaConnection.DoConnect
 0001:0000727C       TCorbaConnection.ThreadTimeout
 0001:0000729C       TCorbaConnection.GetServer
 0001:00007324       Finalization
 0001:00007354       corbacon
 0001:0000757C       @GetPackageInfoTable
 0001:00007584       @PackageLoad
 0001:00007590       @PackageUnload
 0001:0000759C       dsnapcrba
 0002:00000000       Module
 0002:00000018       TlsProc
 0002:00000028       OrbDll
 0002:0000002C       Initialized
 0002:00001000       ModuleIsLib
 0002:00001001       ModuleIsPackage
 0002:00001004       TlsIndex
 0002:0000100C       HInstance
 0002:00001010       .1
 0002:00001014       tlsBuffer
 0002:00001018       .3
 0002:0000101C       .1
 0002:00001020       .1
 0002:00001024       .1
 0002:00001028       InitOrbProc
 0002:0000102C       CorbaStringFreeProc
 0002:00001030       CorbaWStringFreeProc
 0002:00001034       CorbaReleaseAnyProc
 0002:00001038       CorbaAnyTypeProc
 0002:0000103C       CorbaDuplicateAnyProc
 0002:00001040       CreateSkeletonProc
 0002:00001044       BindStubProc
 0002:00001048       VariantToAnyProc
 0002:0000104C       AnyToVariantProc
 0002:00001050       SequenceToVariantProc
 0002:00001054       CreateUserExceptionProc
 0002:00001058       RegisterUserExceptionProc
 0002:0000105C       UnRegisterUserExceptionProc
 0002:00001060       CorbaSkeletonManager
 0002:00001064       CorbaStubManager
 0002:00001068       CorbaInterfaceIDManager
 0002:0000106C       .71
 0002:00001070       CorbaFactoryManager
 0002:00001074       BOAVar
 0002:00001078       ORBVar
 0002:0000107C       OldVarDispProc
 0002:00001080       OldExceptClassProc
 0002:00001084       OldExceptObjectProc
 0002:00001088       .2
 0002:0000108C       .1
 0002:00001090       .1
 0002:00001094       .1
 0002:00001098       .1
 0002:0000109C       .1
 0002:000010A0       .1
 0002:000010A4       .1
 0002:000010A8       .3
 0002:000010AC       .1
 0002:000010B0       .1
 0002:000010B4       .3
 0002:000010B8       .2


Bound resource files

dsnapcrba.res
C:\TEMP\dtf2976.tmp


Program entry point at 0001:0000759C
